; Function Attrs: mustprogress uwtable
define internal noalias noundef nonnull ptr @_ZL25llama_sampler_top_p_clonePK13llama_sampler(ptr noundef readonly captures(none) %0) #0 {
  %2 = getelementptr inbounds nuw i8, ptr %0, i64 8
  %3 = load ptr, ptr %2, align 8, !tbaa !9
  %4 = load float, ptr %3, align 8, !tbaa !61
  %5 = getelementptr inbounds nuw i8, ptr %3, i64 8
  %6 = load i64, ptr %5, align 8, !tbaa !63
  %7 = tail call noalias noundef nonnull dereferenceable(16) ptr @_Znwm(i64 noundef 16) #30
  store float %4, ptr %7, align 16, !tbaa !61
  %8 = getelementptr inbounds nuw i8, ptr %7, i64 8
  store i64 %6, ptr %8, align 8, !tbaa !63
  %9 = tail call noalias noundef nonnull dereferenceable(16) ptr @_Znwm(i64 noundef 16) #30
  store ptr @_ZL21llama_sampler_top_p_i, ptr %9, align 16, !tbaa !3
  %10 = getelementptr inbounds nuw i8, ptr %9, i64 8
  store ptr %7, ptr %10, align 8, !tbaa !9
  ret ptr %9
}